target datalayout = "e-m:e-p270:32:32-p271:32:32-p272:64:64-i64:64-i128:128-f80:128-n8:16:32:64-S128"
target triple = "x86_64-pc-linux-gnu"

%struct.FormatNode = type { i8, [5 x i8], i8, ptr }
%struct.KeyWord = type { ptr, i32, i32, i8, i32 }

; Function Attrs: nounwind uwtable
define internal i32 @DCH_datetime_type(ptr noundef %0) #0 {
  %2 = alloca ptr, align 8
  %3 = alloca ptr, align 8
  %4 = alloca i32, align 4
  store ptr %0, ptr %2, align 8
  call void @llvm.lifetime.start.p0(i64 8, ptr %3) #11
  call void @llvm.lifetime.start.p0(i64 4, ptr %4) #11
  store i32 0, ptr %4, align 4
  %5 = load ptr, ptr %2, align 8
  store ptr %5, ptr %3, align 8
  br label %6

6:                                                ; preds = %35, %1
  %7 = load ptr, ptr %3, align 8
  %8 = getelementptr inbounds nuw %struct.FormatNode, ptr %7, i32 0, i32 0
  %9 = load i8, ptr %8, align 8
  %10 = zext i8 %9 to i32
  %11 = icmp ne i32 %10, 1
  br i1 %11, label %12, label %38

12:                                               ; preds = %6
  %13 = load ptr, ptr %3, align 8
  %14 = getelementptr inbounds nuw %struct.FormatNode, ptr %13, i32 0, i32 0
  %15 = load i8, ptr %14, align 8
  %16 = zext i8 %15 to i32
  %17 = icmp ne i32 %16, 2
  br i1 %17, label %18, label %19

18:                                               ; preds = %12
  br label %35

19:                                               ; preds = %12
  %20 = load ptr, ptr %3, align 8
  %21 = getelementptr inbounds nuw %struct.FormatNode, ptr %20, i32 0, i32 3
  %22 = load ptr, ptr %21, align 8
  %23 = getelementptr inbounds nuw %struct.KeyWord, ptr %22, i32 0, i32 2
  %24 = load i32, ptr %23, align 4
  switch i32 %24, label %34 [
    i32 20, label %34
    i32 1, label %25
    i32 40, label %25
    i32 59, label %25
    i32 94, label %25
    i32 3, label %25
    i32 41, label %25
    i32 61, label %25
    i32 95, label %25
    i32 23, label %25
    i32 22, label %25
    i32 21, label %25
    i32 32, label %25
    i32 46, label %25
    i32 36, label %25
    i32 50, label %25
    i32 14, label %25
    i32 15, label %25
    i32 16, label %25
    i32 17, label %25
    i32 18, label %25
    i32 19, label %25
    i32 45, label %25
    i32 103, label %28
    i32 49, label %28
    i32 39, label %28
    i32 47, label %28
    i32 48, label %28
    i32 0, label %31
    i32 4, label %31
    i32 58, label %31
    i32 62, label %31
    i32 2, label %31
    i32 5, label %31
    i32 60, label %31
    i32 63, label %31
    i32 34, label %31
    i32 37, label %31
    i32 90, label %31
    i32 35, label %31
    i32 38, label %31
    i32 91, label %31
    i32 33, label %31
    i32 7, label %31
    i32 11, label %31
    i32 65, label %31
    i32 10, label %31
    i32 12, label %31
    i32 68, label %31
    i32 8, label %31
    i32 24, label %31
    i32 9, label %31
    i32 13, label %31
    i32 25, label %31
    i32 51, label %31
    i32 42, label %31
    i32 6, label %31
    i32 53, label %31
    i32 54, label %31
    i32 27, label %31
    i32 55, label %31
    i32 28, label %31
    i32 56, label %31
    i32 29, label %31
    i32 57, label %31
    i32 30, label %31
    i32 43, label %31
    i32 97, label %31
    i32 52, label %31
    i32 31, label %31
  ]

25:                                               ; preds = %19, %19, %19, %19, %19, %19, %19, %19, %19, %19, %19, %19, %19, %19, %19, %19, %19, %19, %19, %19, %19, %19
  %26 = load i32, ptr %4, align 4
  %27 = or i32 %26, 2
  store i32 %27, ptr %4, align 4
  br label %34

28:                                               ; preds = %19, %19, %19, %19, %19
  %29 = load i32, ptr %4, align 4
  %30 = or i32 %29, 4
  store i32 %30, ptr %4, align 4
  br label %34

31:                                               ; preds = %19, %19, %19, %19, %19, %19, %19, %19, %19, %19, %19, %19, %19, %19, %19, %19, %19, %19, %19, %19, %19, %19, %19, %19, %19, %19, %19, %19, %19, %19, %19, %19, %19, %19, %19, %19, %19, %19, %19, %19, %19, %19
  %32 = load i32, ptr %4, align 4
  %33 = or i32 %32, 1
  store i32 %33, ptr %4, align 4
  br label %34

34:                                               ; preds = %19, %31, %19, %28, %25
  br label %35

35:                                               ; preds = %34, %18
  %36 = load ptr, ptr %3, align 8
  %37 = getelementptr inbounds nuw %struct.FormatNode, ptr %36, i32 1
  store ptr %37, ptr %3, align 8
  br label %6, !llvm.loop !13

38:                                               ; preds = %6
  %39 = load i32, ptr %4, align 4
  call void @llvm.lifetime.end.p0(i64 4, ptr %4) #11
  call void @llvm.lifetime.end.p0(i64 8, ptr %3) #11
  ret i32 %39
}