; Function Attrs: nofree norecurse nosync nounwind memory(read, inaccessiblemem: none) uwtable
define internal fastcc range(i32 0, 8) i32 @DCH_datetime_type(ptr noundef readonly captures(none) %0) unnamed_addr #6 {
  br label %2

2:                                                ; preds = %15, %1
  %.08 = phi ptr [ %0, %1 ], [ %16, %15 ]
  %.0 = phi i32 [ 0, %1 ], [ %.1, %15 ]
  %3 = load i8, ptr %.08, align 8
  switch i8 %3, label %15 [
    i8 1, label %17
    i8 2, label %4
  ]

4:                                                ; preds = %2
  %5 = getelementptr inbounds nuw i8, ptr %.08, i64 8
  %6 = load ptr, ptr %5, align 8
  %7 = getelementptr inbounds nuw i8, ptr %6, i64 12
  %8 = load i32, ptr %7, align 4
  switch i32 %8, label %15 [
    i32 31, label %13
    i32 1, label %9
    i32 40, label %9
    i32 59, label %9
    i32 94, label %9
    i32 3, label %9
    i32 41, label %9
    i32 61, label %9
    i32 95, label %9
    i32 23, label %9
    i32 22, label %9
    i32 21, label %9
    i32 32, label %9
    i32 46, label %9
    i32 36, label %9
    i32 50, label %9
    i32 14, label %9
    i32 15, label %9
    i32 16, label %9
    i32 17, label %9
    i32 18, label %9
    i32 19, label %9
    i32 45, label %9
    i32 103, label %11
    i32 49, label %11
    i32 39, label %11
    i32 47, label %11
    i32 48, label %11
    i32 0, label %13
    i32 4, label %13
    i32 58, label %13
    i32 62, label %13
    i32 2, label %13
    i32 5, label %13
    i32 60, label %13
    i32 63, label %13
    i32 34, label %13
    i32 37, label %13
    i32 90, label %13
    i32 35, label %13
    i32 38, label %13
    i32 91, label %13
    i32 33, label %13
    i32 7, label %13
    i32 11, label %13
    i32 65, label %13
    i32 10, label %13
    i32 12, label %13
    i32 68, label %13
    i32 8, label %13
    i32 24, label %13
    i32 9, label %13
    i32 13, label %13
    i32 25, label %13
    i32 51, label %13
    i32 42, label %13
    i32 6, label %13
    i32 53, label %13
    i32 54, label %13
    i32 27, label %13
    i32 55, label %13
    i32 28, label %13
    i32 56, label %13
    i32 29, label %13
    i32 57, label %13
    i32 30, label %13
    i32 43, label %13
    i32 97, label %13
    i32 52, label %13
  ]

9:                                                ; preds = %4, %4, %4, %4, %4, %4, %4, %4, %4, %4, %4, %4, %4, %4, %4, %4, %4, %4, %4, %4, %4, %4
  %10 = or i32 %.0, 2
  br label %15

11:                                               ; preds = %4, %4, %4, %4, %4
  %12 = or i32 %.0, 4
  br label %15

13:                                               ; preds = %4, %4, %4, %4, %4, %4, %4, %4, %4, %4, %4, %4, %4, %4, %4, %4, %4, %4, %4, %4, %4, %4, %4, %4, %4, %4, %4, %4, %4, %4, %4, %4, %4, %4, %4, %4, %4, %4, %4, %4, %4, %4
  %14 = or i32 %.0, 1
  br label %15

15:                                               ; preds = %2, %4, %9, %11, %13
  %.1 = phi i32 [ %.0, %4 ], [ %12, %11 ], [ %10, %9 ], [ %14, %13 ], [ %.0, %2 ]
  %16 = getelementptr inbounds nuw i8, ptr %.08, i64 16
  br label %2, !llvm.loop !22

17:                                               ; preds = %2
  ret i32 %.0
}